; Function Attrs: mustprogress uwtable
define internal noundef zeroext i1 @_ZNSt17_Function_handlerIFbllbEZN5arrow7compute8internal12_GLOBAL__N_119PrimitiveFilterImplILin1ELb0EE13ExecREEFilterEvEUlllbE1_E9_M_invokeERKSt9_Any_dataOlSC_Ob(ptr noundef nonnull readonly align 8 captures(none) dereferenceable(16) %0, ptr noundef nonnull readonly align 8 captures(none) dereferenceable(8) %1, ptr noundef nonnull readonly align 8 captures(none) dereferenceable(8) %2, ptr noundef nonnull readonly align 1 captures(none) dereferenceable(1) %3) #1 align 2 {
  %.val = load ptr, ptr %0, align 8, !tbaa !946
  %.val5 = load i64, ptr %2, align 8, !tbaa !75
  %.val6 = load i8, ptr %3, align 1, !tbaa !795, !range !137, !noundef !138
  %5 = trunc nuw i8 %.val6 to i1
  %6 = getelementptr inbounds nuw i8, ptr %.val, i64 88
  %7 = load i64, ptr %6, align 8, !tbaa !321
  br i1 %5, label %8, label %18

8:                                                ; preds = %4
  %.val4 = load i64, ptr %1, align 8, !tbaa !75
  %9 = getelementptr inbounds nuw i8, ptr %.val, i64 72
  %10 = load ptr, ptr %9, align 8, !tbaa !319
  %.val.i.i.i.i = load i64, ptr %.val, align 8, !tbaa !310
  %11 = mul nsw i64 %.val.i.i.i.i, %7
  %12 = getelementptr inbounds i8, ptr %10, i64 %11
  %13 = getelementptr inbounds nuw i8, ptr %.val, i64 16
  %14 = load ptr, ptr %13, align 8, !tbaa !313
  %15 = mul nsw i64 %.val.i.i.i.i, %.val4
  %16 = getelementptr inbounds i8, ptr %14, i64 %15
  %17 = mul nsw i64 %.val.i.i.i.i, %.val5
  tail call void @llvm.memcpy.p0.p0.i64(ptr align 1 %12, ptr align 1 %16, i64 %17, i1 false)
  br label %_ZSt10__invoke_rIbRZN5arrow7compute8internal12_GLOBAL__N_119PrimitiveFilterImplILin1ELb0EE13ExecREEFilterEvEUlllbE1_JllbEENSt9enable_ifIX16is_invocable_r_vIT_T0_DpT1_EES9_E4typeEOSA_DpOSB_.exit

18:                                               ; preds = %4
  %19 = getelementptr inbounds nuw i8, ptr %.val, i64 64
  %20 = load ptr, ptr %19, align 8, !tbaa !318
  tail call void @_ZN5arrow8bit_util9SetBitsToEPhllb(ptr noundef %20, i64 noundef %7, i64 noundef %.val5, i1 noundef zeroext false)
  %21 = getelementptr inbounds nuw i8, ptr %.val, i64 72
  %22 = load ptr, ptr %21, align 8, !tbaa !319
  %23 = load i64, ptr %6, align 8, !tbaa !321
  %.val.i5.i.i.i = load i64, ptr %.val, align 8, !tbaa !310
  %24 = mul nsw i64 %.val.i5.i.i.i, %23
  %25 = getelementptr inbounds i8, ptr %22, i64 %24
  %26 = mul nsw i64 %.val.i5.i.i.i, %.val5
  tail call void @llvm.memset.p0.i64(ptr align 1 %25, i8 0, i64 %26, i1 false)
  br label %_ZSt10__invoke_rIbRZN5arrow7compute8internal12_GLOBAL__N_119PrimitiveFilterImplILin1ELb0EE13ExecREEFilterEvEUlllbE1_JllbEENSt9enable_ifIX16is_invocable_r_vIT_T0_DpT1_EES9_E4typeEOSA_DpOSB_.exit

_ZSt10__invoke_rIbRZN5arrow7compute8internal12_GLOBAL__N_119PrimitiveFilterImplILin1ELb0EE13ExecREEFilterEvEUlllbE1_JllbEENSt9enable_ifIX16is_invocable_r_vIT_T0_DpT1_EES9_E4typeEOSA_DpOSB_.exit: ; preds = %8, %18
  %27 = load i64, ptr %6, align 8, !tbaa !321
  %28 = add nsw i64 %27, %.val5
  store i64 %28, ptr %6, align 8, !tbaa !321
  ret i1 true
}